target datalayout = "e-m:e-p270:32:32-p271:32:32-p272:64:64-i64:64-i128:128-f80:128-n8:16:32:64-S128"
target triple = "x86_64-pc-linux-gnu"

%struct.SN_env = type { ptr, i32, i32, i32, i32, i32, ptr, ptr }

@g_v = internal constant [4 x i8] c"\11A\10\01", align 1
@g_v_WXY = internal constant [5 x i8] c"\01\11A\D0\01", align 1

; Function Attrs: nounwind uwtable
define internal i32 @r_shortv(ptr noundef %0) #0 {
  %2 = alloca i32, align 4
  %3 = alloca ptr, align 8
  store ptr %0, ptr %3, align 8
  %4 = load ptr, ptr %3, align 8
  %5 = call i32 @out_grouping_b(ptr noundef %4, ptr noundef @g_v_WXY, i32 noundef 89, i32 noundef 121, i32 noundef 0)
  %6 = icmp ne i32 %5, 0
  br i1 %6, label %7, label %8

7:                                                ; preds = %1
  store i32 0, ptr %2, align 4
  br label %19

8:                                                ; preds = %1
  %9 = load ptr, ptr %3, align 8
  %10 = call i32 @in_grouping_b(ptr noundef %9, ptr noundef @g_v, i32 noundef 97, i32 noundef 121, i32 noundef 0)
  %11 = icmp ne i32 %10, 0
  br i1 %11, label %12, label %13

12:                                               ; preds = %8
  store i32 0, ptr %2, align 4
  br label %19

13:                                               ; preds = %8
  %14 = load ptr, ptr %3, align 8
  %15 = call i32 @out_grouping_b(ptr noundef %14, ptr noundef @g_v, i32 noundef 97, i32 noundef 121, i32 noundef 0)
  %16 = icmp ne i32 %15, 0
  br i1 %16, label %17, label %18

17:                                               ; preds = %13
  store i32 0, ptr %2, align 4
  br label %19

18:                                               ; preds = %13
  store i32 1, ptr %2, align 4
  br label %19

19:                                               ; preds = %18, %17, %12, %7
  %20 = load i32, ptr %2, align 4
  ret i32 %20
}

; Function Attrs: nounwind uwtable
define internal i32 @r_R1(ptr noundef %0) #0 {
  %2 = alloca i32, align 4
  %3 = alloca ptr, align 8
  store ptr %0, ptr %3, align 8
  %4 = load ptr, ptr %3, align 8
  %5 = getelementptr inbounds nuw %struct.SN_env, ptr %4, i32 0, i32 7
  %6 = load ptr, ptr %5, align 8
  %7 = getelementptr inbounds i32, ptr %6, i64 1
  %8 = load i32, ptr %7, align 4
  %9 = load ptr, ptr %3, align 8
  %10 = getelementptr inbounds nuw %struct.SN_env, ptr %9, i32 0, i32 1
  %11 = load i32, ptr %10, align 8
  %12 = icmp sle i32 %8, %11
  br i1 %12, label %14, label %13

13:                                               ; preds = %1
  store i32 0, ptr %2, align 4
  br label %15

14:                                               ; preds = %1
  store i32 1, ptr %2, align 4
  br label %15

15:                                               ; preds = %14, %13
  %16 = load i32, ptr %2, align 4
  ret i32 %16
}

; Function Attrs: nounwind uwtable
define internal i32 @r_R2(ptr noundef %0) #0 {
  %2 = alloca i32, align 4
  %3 = alloca ptr, align 8
  store ptr %0, ptr %3, align 8
  %4 = load ptr, ptr %3, align 8
  %5 = getelementptr inbounds nuw %struct.SN_env, ptr %4, i32 0, i32 7
  %6 = load ptr, ptr %5, align 8
  %7 = getelementptr inbounds i32, ptr %6, i64 0
  %8 = load i32, ptr %7, align 4
  %9 = load ptr, ptr %3, align 8
  %10 = getelementptr inbounds nuw %struct.SN_env, ptr %9, i32 0, i32 1
  %11 = load i32, ptr %10, align 8
  %12 = icmp sle i32 %8, %11
  br i1 %12, label %14, label %13

13:                                               ; preds = %1
  store i32 0, ptr %2, align 4
  br label %15

14:                                               ; preds = %1
  store i32 1, ptr %2, align 4
  br label %15

15:                                               ; preds = %14, %13
  %16 = load i32, ptr %2, align 4
  ret i32 %16
}

; Function Attrs: nounwind uwtable
define internal i32 @r_Step_5a(ptr noundef %0) #0 {
  %2 = alloca i32, align 4
  %3 = alloca ptr, align 8
  %4 = alloca i32, align 4
  %5 = alloca i32, align 4
  %6 = alloca i32, align 4
  %7 = alloca i32, align 4
  %8 = alloca i32, align 4
  %9 = alloca i32, align 4
  %10 = alloca i32, align 4
  store ptr %0, ptr %3, align 8
  %11 = load ptr, ptr %3, align 8
  %12 = getelementptr inbounds nuw %struct.SN_env, ptr %11, i32 0, i32 1
  %13 = load i32, ptr %12, align 8
  %14 = load ptr, ptr %3, align 8
  %15 = getelementptr inbounds nuw %struct.SN_env, ptr %14, i32 0, i32 5
  store i32 %13, ptr %15, align 8
  %16 = load ptr, ptr %3, align 8
  %17 = getelementptr inbounds nuw %struct.SN_env, ptr %16, i32 0, i32 1
  %18 = load i32, ptr %17, align 8
  %19 = load ptr, ptr %3, align 8
  %20 = getelementptr inbounds nuw %struct.SN_env, ptr %19, i32 0, i32 3
  %21 = load i32, ptr %20, align 8
  %22 = icmp sle i32 %18, %21
  br i1 %22, label %36, label %23

23:                                               ; preds = %1
  %24 = load ptr, ptr %3, align 8
  %25 = getelementptr inbounds nuw %struct.SN_env, ptr %24, i32 0, i32 0
  %26 = load ptr, ptr %25, align 8
  %27 = load ptr, ptr %3, align 8
  %28 = getelementptr inbounds nuw %struct.SN_env, ptr %27, i32 0, i32 1
  %29 = load i32, ptr %28, align 8
  %30 = sub i32 %29, 1
  %31 = sext i32 %30 to i64
  %32 = getelementptr inbounds i8, ptr %26, i64 %31
  %33 = load i8, ptr %32, align 1
  %34 = zext i8 %33 to i32
  %35 = icmp ne i32 %34, 101
  br i1 %35, label %36, label %37

36:                                               ; preds = %23, %1
  store i32 0, ptr %2, align 4
  br label %132

37:                                               ; preds = %23
  %38 = load ptr, ptr %3, align 8
  %39 = getelementptr inbounds nuw %struct.SN_env, ptr %38, i32 0, i32 1
  %40 = load i32, ptr %39, align 8
  %41 = add i32 %40, -1
  store i32 %41, ptr %39, align 8
  %42 = load ptr, ptr %3, align 8
  %43 = getelementptr inbounds nuw %struct.SN_env, ptr %42, i32 0, i32 1
  %44 = load i32, ptr %43, align 8
  %45 = load ptr, ptr %3, align 8
  %46 = getelementptr inbounds nuw %struct.SN_env, ptr %45, i32 0, i32 4
  store i32 %44, ptr %46, align 4
  call void @llvm.lifetime.start.p0(i64 4, ptr %4) #3
  %47 = load ptr, ptr %3, align 8
  %48 = getelementptr inbounds nuw %struct.SN_env, ptr %47, i32 0, i32 2
  %49 = load i32, ptr %48, align 4
  %50 = load ptr, ptr %3, align 8
  %51 = getelementptr inbounds nuw %struct.SN_env, ptr %50, i32 0, i32 1
  %52 = load i32, ptr %51, align 8
  %53 = sub i32 %49, %52
  store i32 %53, ptr %4, align 4
  call void @llvm.lifetime.start.p0(i64 4, ptr %5) #3
  %54 = load ptr, ptr %3, align 8
  %55 = call i32 @r_R2(ptr noundef %54)
  store i32 %55, ptr %5, align 4
  %56 = load i32, ptr %5, align 4
  %57 = icmp eq i32 %56, 0
  br i1 %57, label %58, label %59

58:                                               ; preds = %37
  store i32 2, ptr %6, align 4
  br label %65

59:                                               ; preds = %37
  %60 = load i32, ptr %5, align 4
  %61 = icmp slt i32 %60, 0
  br i1 %61, label %62, label %64

62:                                               ; preds = %59
  %63 = load i32, ptr %5, align 4
  store i32 %63, ptr %2, align 4
  store i32 1, ptr %6, align 4
  br label %65

64:                                               ; preds = %59
  store i32 0, ptr %6, align 4
  br label %65

65:                                               ; preds = %58, %64, %62
  call void @llvm.lifetime.end.p0(i64 4, ptr %5) #3
  %66 = load i32, ptr %6, align 4
  switch i32 %66, label %118 [
    i32 0, label %67
    i32 2, label %68
  ]

67:                                               ; preds = %65
  store i32 3, ptr %6, align 4
  br label %118

68:                                               ; preds = %65
  %69 = load ptr, ptr %3, align 8
  %70 = getelementptr inbounds nuw %struct.SN_env, ptr %69, i32 0, i32 2
  %71 = load i32, ptr %70, align 4
  %72 = load i32, ptr %4, align 4
  %73 = sub i32 %71, %72
  %74 = load ptr, ptr %3, align 8
  %75 = getelementptr inbounds nuw %struct.SN_env, ptr %74, i32 0, i32 1
  store i32 %73, ptr %75, align 8
  call void @llvm.lifetime.start.p0(i64 4, ptr %7) #3
  %76 = load ptr, ptr %3, align 8
  %77 = call i32 @r_R1(ptr noundef %76)
  store i32 %77, ptr %7, align 4
  %78 = load i32, ptr %7, align 4
  %79 = icmp sle i32 %78, 0
  br i1 %79, label %80, label %82

80:                                               ; preds = %68
  %81 = load i32, ptr %7, align 4
  store i32 %81, ptr %2, align 4
  store i32 1, ptr %6, align 4
  br label %83

82:                                               ; preds = %68
  store i32 0, ptr %6, align 4
  br label %83

83:                                               ; preds = %82, %80
  call void @llvm.lifetime.end.p0(i64 4, ptr %7) #3
  %84 = load i32, ptr %6, align 4
  switch i32 %84, label %118 [
    i32 0, label %85
  ]

85:                                               ; preds = %83
  call void @llvm.lifetime.start.p0(i64 4, ptr %8) #3
  %86 = load ptr, ptr %3, align 8
  %87 = getelementptr inbounds nuw %struct.SN_env, ptr %86, i32 0, i32 2
  %88 = load i32, ptr %87, align 4
  %89 = load ptr, ptr %3, align 8
  %90 = getelementptr inbounds nuw %struct.SN_env, ptr %89, i32 0, i32 1
  %91 = load i32, ptr %90, align 8
  %92 = sub i32 %88, %91
  store i32 %92, ptr %8, align 4
  call void @llvm.lifetime.start.p0(i64 4, ptr %9) #3
  %93 = load ptr, ptr %3, align 8
  %94 = call i32 @r_shortv(ptr noundef %93)
  store i32 %94, ptr %9, align 4
  %95 = load i32, ptr %9, align 4
  %96 = icmp eq i32 %95, 0
  br i1 %96, label %97, label %98

97:                                               ; preds = %85
  store i32 4, ptr %6, align 4
  br label %104

98:                                               ; preds = %85
  %99 = load i32, ptr %9, align 4
  %100 = icmp slt i32 %99, 0
  br i1 %100, label %101, label %103

101:                                              ; preds = %98
  %102 = load i32, ptr %9, align 4
  store i32 %102, ptr %2, align 4
  store i32 1, ptr %6, align 4
  br label %104

103:                                              ; preds = %98
  store i32 0, ptr %6, align 4
  br label %104

104:                                              ; preds = %97, %103, %101
  call void @llvm.lifetime.end.p0(i64 4, ptr %9) #3
  %105 = load i32, ptr %6, align 4
  switch i32 %105, label %115 [
    i32 0, label %106
    i32 4, label %107
  ]

106:                                              ; preds = %104
  store i32 0, ptr %2, align 4
  store i32 1, ptr %6, align 4
  br label %115

107:                                              ; preds = %104
  %108 = load ptr, ptr %3, align 8
  %109 = getelementptr inbounds nuw %struct.SN_env, ptr %108, i32 0, i32 2
  %110 = load i32, ptr %109, align 4
  %111 = load i32, ptr %8, align 4
  %112 = sub i32 %110, %111
  %113 = load ptr, ptr %3, align 8
  %114 = getelementptr inbounds nuw %struct.SN_env, ptr %113, i32 0, i32 1
  store i32 %112, ptr %114, align 8
  store i32 0, ptr %6, align 4
  br label %115

115:                                              ; preds = %107, %106, %104
  call void @llvm.lifetime.end.p0(i64 4, ptr %8) #3
  %116 = load i32, ptr %6, align 4
  switch i32 %116, label %118 [
    i32 0, label %117
  ]

117:                                              ; preds = %115
  store i32 0, ptr %6, align 4
  br label %118

118:                                              ; preds = %67, %117, %115, %83, %65
  call void @llvm.lifetime.end.p0(i64 4, ptr %4) #3
  %119 = load i32, ptr %6, align 4
  switch i32 %119, label %134 [
    i32 0, label %120
    i32 1, label %132
    i32 3, label %121
  ]

120:                                              ; preds = %118
  br label %121

121:                                              ; preds = %120, %118
  call void @llvm.lifetime.start.p0(i64 4, ptr %10) #3
  %122 = load ptr, ptr %3, align 8
  %123 = call i32 @slice_del(ptr noundef %122)
  store i32 %123, ptr %10, align 4
  %124 = load i32, ptr %10, align 4
  %125 = icmp slt i32 %124, 0
  br i1 %125, label %126, label %128

126:                                              ; preds = %121
  %127 = load i32, ptr %10, align 4
  store i32 %127, ptr %2, align 4
  store i32 1, ptr %6, align 4
  br label %129

128:                                              ; preds = %121
  store i32 0, ptr %6, align 4
  br label %129

129:                                              ; preds = %128, %126
  call void @llvm.lifetime.end.p0(i64 4, ptr %10) #3
  %130 = load i32, ptr %6, align 4
  switch i32 %130, label %134 [
    i32 0, label %131
    i32 1, label %132
  ]

131:                                              ; preds = %129
  store i32 1, ptr %2, align 4
  br label %132

132:                                              ; preds = %131, %129, %118, %36
  %133 = load i32, ptr %2, align 4
  ret i32 %133

134:                                              ; preds = %129, %118
  unreachable
}