; Function Attrs: nounwind uwtable
define internal fastcc range(i32 -2147483648, 2) i32 @r_Step_5a(ptr noundef initializes((24, 28)) %0) unnamed_addr #0 {
  %2 = getelementptr inbounds nuw i8, ptr %0, i64 8
  %3 = load i32, ptr %2, align 8
  %4 = getelementptr inbounds nuw i8, ptr %0, i64 24
  store i32 %3, ptr %4, align 8
  %5 = getelementptr inbounds nuw i8, ptr %0, i64 16
  %6 = load i32, ptr %5, align 8
  %.not = icmp sgt i32 %3, %6
  br i1 %.not, label %7, label %.thread

7:                                                ; preds = %1
  %8 = load ptr, ptr %0, align 8
  %9 = add nsw i32 %3, -1
  %10 = sext i32 %9 to i64
  %11 = getelementptr inbounds i8, ptr %8, i64 %10
  %12 = load i8, ptr %11, align 1
  %.not51 = icmp eq i8 %12, 101
  br i1 %.not51, label %13, label %.thread

13:                                               ; preds = %7
  store i32 %9, ptr %2, align 8
  %14 = getelementptr inbounds nuw i8, ptr %0, i64 20
  store i32 %9, ptr %14, align 4
  %15 = getelementptr inbounds nuw i8, ptr %0, i64 12
  %16 = load i32, ptr %15, align 4
  %.neg = sub i32 %9, %16
  %17 = getelementptr i8, ptr %0, i64 40
  %.val57 = load ptr, ptr %17, align 8
  %.val57.val = load i32, ptr %.val57, align 4
  %.not.i.not = icmp slt i32 %.val57.val, %3
  br i1 %.not.i.not, label %27, label %18

18:                                               ; preds = %13
  %19 = getelementptr i8, ptr %.val57, i64 4
  %.val55.val = load i32, ptr %19, align 4
  %.not.i58.not = icmp slt i32 %.val55.val, %3
  br i1 %.not.i58.not, label %20, label %.thread

20:                                               ; preds = %18
  %21 = tail call i32 @out_grouping_b(ptr noundef nonnull %0, ptr noundef nonnull @g_v_WXY, i32 noundef 89, i32 noundef 121, i32 noundef 0) #3
  %.not.i60 = icmp eq i32 %21, 0
  br i1 %.not.i60, label %22, label %r_shortv.exit.thread

22:                                               ; preds = %20
  %23 = tail call i32 @in_grouping_b(ptr noundef nonnull %0, ptr noundef nonnull @g_v, i32 noundef 97, i32 noundef 121, i32 noundef 0) #3
  %.not3.i = icmp eq i32 %23, 0
  br i1 %.not3.i, label %r_shortv.exit, label %r_shortv.exit.thread

r_shortv.exit:                                    ; preds = %22
  %24 = tail call i32 @out_grouping_b(ptr noundef nonnull %0, ptr noundef nonnull @g_v, i32 noundef 97, i32 noundef 121, i32 noundef 0) #3
  %.not4.i.not = icmp eq i32 %24, 0
  br i1 %.not4.i.not, label %.thread, label %r_shortv.exit.thread

r_shortv.exit.thread:                             ; preds = %22, %20, %r_shortv.exit
  %25 = load i32, ptr %15, align 4
  %26 = add i32 %.neg, %25
  store i32 %26, ptr %2, align 8
  br label %27

27:                                               ; preds = %r_shortv.exit.thread, %13
  %28 = tail call i32 @slice_del(ptr noundef nonnull %0) #3
  %29 = icmp sgt i32 %28, -1
  %spec.select = select i1 %29, i32 1, i32 %28
  br label %.thread

.thread:                                          ; preds = %r_shortv.exit, %18, %27, %1, %7
  %.0 = phi i32 [ 0, %7 ], [ 0, %1 ], [ %spec.select, %27 ], [ 0, %r_shortv.exit ], [ 0, %18 ]
  ret i32 %.0
}